; Function Attrs: nounwind uwtable
define range(i32 -3, 1) i32 @CVSpilsSetPrecType(ptr noundef %0, i32 noundef %1) local_unnamed_addr #0 {
  %3 = icmp eq ptr %0, null
  br i1 %3, label %4, label %5

4:                                                ; preds = %2
  tail call void (ptr, i32, ptr, ptr, ptr, ...) @cvProcessError(ptr noundef null, i32 noundef -1, ptr noundef nonnull @.str, ptr noundef nonnull @.str.1, ptr noundef nonnull @.str.2) #5
  br label %14

5:                                                ; preds = %2
  %6 = getelementptr inbounds nuw i8, ptr %0, i64 1696
  %7 = load ptr, ptr %6, align 8, !tbaa !3
  %8 = icmp eq ptr %7, null
  br i1 %8, label %9, label %10

9:                                                ; preds = %5
  tail call void (ptr, i32, ptr, ptr, ptr, ...) @cvProcessError(ptr noundef nonnull %0, i32 noundef -2, ptr noundef nonnull @.str, ptr noundef nonnull @.str.1, ptr noundef nonnull @.str.3) #5
  br label %14

10:                                               ; preds = %5
  %or.cond5 = icmp ugt i32 %1, 3
  br i1 %or.cond5, label %11, label %12

11:                                               ; preds = %10
  tail call void (ptr, i32, ptr, ptr, ptr, ...) @cvProcessError(ptr noundef nonnull %0, i32 noundef -3, ptr noundef nonnull @.str, ptr noundef nonnull @.str.1, ptr noundef nonnull @.str.4) #5
  br label %14

12:                                               ; preds = %10
  %13 = getelementptr inbounds nuw i8, ptr %7, i64 4
  store i32 %1, ptr %13, align 4, !tbaa !18
  br label %14

14:                                               ; preds = %12, %11, %9, %4
  %.0 = phi i32 [ -1, %4 ], [ -2, %9 ], [ -3, %11 ], [ 0, %12 ]
  ret i32 %.0
}